target datalayout = "e-m:e-p270:32:32-p271:32:32-p272:64:64-i64:64-i128:128-f80:128-n8:16:32:64-S128"
target triple = "x86_64-pc-linux-gnu"

%class.Register = type { i32 }
%class.XMMRegister = type { i32 }
%class.StubCodeMark = type { ptr, ptr }
%class.StubCodeGenerator = type { ptr, i8, ptr }
%class.CodeSection = type { ptr, ptr, ptr, ptr, ptr, ptr, ptr, ptr, i8, i8, i32, i8, ptr }
%class.AbstractAssembler = type { ptr, ptr, ptr }

@.str = private unnamed_addr constant [13 x i8] c"StubRoutines\00", align 1
@_ZL7c_rarg3 = internal constant %class.Register { i32 1 }, align 4
@_ZL7c_rarg2 = internal constant %class.Register { i32 2 }, align 4
@_ZL7c_rarg1 = internal constant %class.Register { i32 6 }, align 4
@_ZL7c_rarg0 = internal constant %class.Register { i32 7 }, align 4
@_ZL3rax = internal constant %class.Register zeroinitializer, align 4
@_ZL4xmm0 = internal constant %class.XMMRegister zeroinitializer, align 4
@CodeEntryAlignment = external global i64, align 8
@_ZL2r9 = internal constant %class.Register { i32 9 }, align 4
@_ZL4xmm1 = internal constant %class.XMMRegister { i32 1 }, align 4
@_ZL4xmm2 = internal constant %class.XMMRegister { i32 2 }, align 4
@_ZL2r8 = internal constant %class.Register { i32 8 }, align 4
@.str.45 = private unnamed_addr constant [19 x i8] c"vectorizedMismatch\00", align 1

; Function Attrs: mustprogress nounwind uwtable
define linkonce_odr hidden noundef ptr @_ZNK11CodeSection3endEv(ptr noundef nonnull align 8 dereferenceable(88) %0) #1 comdat align 2 {
  %2 = alloca ptr, align 8
  store ptr %0, ptr %2, align 8
  %3 = load ptr, ptr %2, align 8
  %4 = getelementptr inbounds %class.CodeSection, ptr %3, i32 0, i32 2
  %5 = load ptr, ptr %4, align 8
  ret ptr %5
}

; Function Attrs: mustprogress nounwind uwtable
define linkonce_odr hidden noundef ptr @_ZNK17AbstractAssembler12code_sectionEv(ptr noundef nonnull align 8 dereferenceable(24) %0) #1 comdat align 2 {
  %2 = alloca ptr, align 8
  store ptr %0, ptr %2, align 8
  %3 = load ptr, ptr %2, align 8
  %4 = getelementptr inbounds %class.AbstractAssembler, ptr %3, i32 0, i32 1
  %5 = load ptr, ptr %4, align 8
  ret ptr %5
}

; Function Attrs: mustprogress nounwind uwtable
define linkonce_odr hidden noundef ptr @_ZNK17AbstractAssembler2pcEv(ptr noundef nonnull align 8 dereferenceable(24) %0) #1 comdat align 2 {
  %2 = alloca ptr, align 8
  store ptr %0, ptr %2, align 8
  %3 = load ptr, ptr %2, align 8
  %4 = call noundef ptr @_ZNK17AbstractAssembler12code_sectionEv(ptr noundef nonnull align 8 dereferenceable(24) %3)
  %5 = call noundef ptr @_ZNK11CodeSection3endEv(ptr noundef nonnull align 8 dereferenceable(88) %4)
  ret ptr %5
}

; Function Attrs: mustprogress nounwind uwtable
define hidden noundef ptr @_ZN13StubGenerator27generate_vectorizedMismatchEv(ptr noundef nonnull align 8 dereferenceable(24) %0) #1 align 2 {
  %2 = alloca ptr, align 8
  %3 = alloca %class.StubCodeMark, align 8
  %4 = alloca ptr, align 8
  %5 = alloca %class.Register, align 4
  %6 = alloca %class.Register, align 4
  %7 = alloca %class.Register, align 4
  %8 = alloca %class.Register, align 4
  %9 = alloca %class.Register, align 4
  %10 = alloca %class.Register, align 4
  %11 = alloca %class.Register, align 4
  %12 = alloca %class.XMMRegister, align 4
  %13 = alloca %class.XMMRegister, align 4
  %14 = alloca %class.XMMRegister, align 4
  %15 = alloca %class.Register, align 4
  %16 = alloca %class.Register, align 4
  %17 = alloca %class.Register, align 4
  %18 = alloca %class.Register, align 4
  %19 = alloca %class.Register, align 4
  %20 = alloca %class.Register, align 4
  %21 = alloca %class.Register, align 4
  %22 = alloca %class.XMMRegister, align 4
  %23 = alloca %class.XMMRegister, align 4
  %24 = alloca %class.XMMRegister, align 4
  store ptr %0, ptr %2, align 8
  %25 = load ptr, ptr %2, align 8
  %26 = getelementptr inbounds %class.StubCodeGenerator, ptr %25, i32 0, i32 2
  %27 = load ptr, ptr %26, align 8
  %28 = load i64, ptr @CodeEntryAlignment, align 8
  %29 = trunc i64 %28 to i32
  call void @_ZN14MacroAssembler5alignEj(ptr noundef nonnull align 8 dereferenceable(40) %27, i32 noundef %29)
  call void @_ZN12StubCodeMarkC1EP17StubCodeGeneratorPKcS3_(ptr noundef nonnull align 8 dereferenceable(16) %3, ptr noundef %25, ptr noundef @.str, ptr noundef @.str.45)
  %30 = getelementptr inbounds %class.StubCodeGenerator, ptr %25, i32 0, i32 2
  %31 = load ptr, ptr %30, align 8
  %32 = call noundef ptr @_ZNK17AbstractAssembler2pcEv(ptr noundef nonnull align 8 dereferenceable(24) %31)
  store ptr %32, ptr %4, align 8
  %33 = getelementptr inbounds %class.StubCodeGenerator, ptr %25, i32 0, i32 2
  %34 = load ptr, ptr %33, align 8
  call void @_ZN14MacroAssembler5enterEv(ptr noundef nonnull align 8 dereferenceable(40) %34)
  call void @llvm.memcpy.p0.p0.i64(ptr align 4 %5, ptr align 4 @_ZL7c_rarg0, i64 4, i1 false)
  call void @llvm.memcpy.p0.p0.i64(ptr align 4 %6, ptr align 4 @_ZL7c_rarg1, i64 4, i1 false)
  call void @llvm.memcpy.p0.p0.i64(ptr align 4 %7, ptr align 4 @_ZL7c_rarg2, i64 4, i1 false)
  call void @llvm.memcpy.p0.p0.i64(ptr align 4 %8, ptr align 4 @_ZL7c_rarg3, i64 4, i1 false)
  call void @llvm.memcpy.p0.p0.i64(ptr align 4 %9, ptr align 4 @_ZL2r8, i64 4, i1 false)
  call void @llvm.memcpy.p0.p0.i64(ptr align 4 %10, ptr align 4 @_ZL2r9, i64 4, i1 false)
  call void @llvm.memcpy.p0.p0.i64(ptr align 4 %11, ptr align 4 @_ZL3rax, i64 4, i1 false)
  call void @llvm.memcpy.p0.p0.i64(ptr align 4 %12, ptr align 4 @_ZL4xmm0, i64 4, i1 false)
  call void @llvm.memcpy.p0.p0.i64(ptr align 4 %13, ptr align 4 @_ZL4xmm1, i64 4, i1 false)
  call void @llvm.memcpy.p0.p0.i64(ptr align 4 %14, ptr align 4 @_ZL4xmm2, i64 4, i1 false)
  %35 = getelementptr inbounds %class.StubCodeGenerator, ptr %25, i32 0, i32 2
  %36 = load ptr, ptr %35, align 8
  call void @llvm.memcpy.p0.p0.i64(ptr align 4 %15, ptr align 4 %5, i64 4, i1 false)
  call void @llvm.memcpy.p0.p0.i64(ptr align 4 %16, ptr align 4 %6, i64 4, i1 false)
  call void @llvm.memcpy.p0.p0.i64(ptr align 4 %17, ptr align 4 %7, i64 4, i1 false)
  call void @llvm.memcpy.p0.p0.i64(ptr align 4 %18, ptr align 4 %8, i64 4, i1 false)
  call void @llvm.memcpy.p0.p0.i64(ptr align 4 %19, ptr align 4 %11, i64 4, i1 false)
  call void @llvm.memcpy.p0.p0.i64(ptr align 4 %20, ptr align 4 %9, i64 4, i1 false)
  call void @llvm.memcpy.p0.p0.i64(ptr align 4 %21, ptr align 4 %10, i64 4, i1 false)
  call void @llvm.memcpy.p0.p0.i64(ptr align 4 %22, ptr align 4 %12, i64 4, i1 false)
  call void @llvm.memcpy.p0.p0.i64(ptr align 4 %23, ptr align 4 %13, i64 4, i1 false)
  call void @llvm.memcpy.p0.p0.i64(ptr align 4 %24, ptr align 4 %14, i64 4, i1 false)
  %37 = getelementptr inbounds %class.Register, ptr %15, i32 0, i32 0
  %38 = load i32, ptr %37, align 4
  %39 = getelementptr inbounds %class.Register, ptr %16, i32 0, i32 0
  %40 = load i32, ptr %39, align 4
  %41 = getelementptr inbounds %class.Register, ptr %17, i32 0, i32 0
  %42 = load i32, ptr %41, align 4
  %43 = getelementptr inbounds %class.Register, ptr %18, i32 0, i32 0
  %44 = load i32, ptr %43, align 4
  %45 = getelementptr inbounds %class.Register, ptr %19, i32 0, i32 0
  %46 = load i32, ptr %45, align 4
  %47 = getelementptr inbounds %class.Register, ptr %20, i32 0, i32 0
  %48 = load i32, ptr %47, align 4
  %49 = getelementptr inbounds %class.Register, ptr %21, i32 0, i32 0
  %50 = load i32, ptr %49, align 4
  %51 = getelementptr inbounds %class.XMMRegister, ptr %22, i32 0, i32 0
  %52 = load i32, ptr %51, align 4
  %53 = getelementptr inbounds %class.XMMRegister, ptr %23, i32 0, i32 0
  %54 = load i32, ptr %53, align 4
  %55 = getelementptr inbounds %class.XMMRegister, ptr %24, i32 0, i32 0
  %56 = load i32, ptr %55, align 4
  call void @_ZN14MacroAssembler19vectorized_mismatchE8RegisterS0_S0_S0_S0_S0_S0_11XMMRegisterS1_S1_(ptr noundef nonnull align 8 dereferenceable(40) %36, i32 %38, i32 %40, i32 %42, i32 %44, i32 %46, i32 %48, i32 %50, i32 %52, i32 %54, i32 %56)
  %57 = getelementptr inbounds %class.StubCodeGenerator, ptr %25, i32 0, i32 2
  %58 = load ptr, ptr %57, align 8
  call void @_ZN9Assembler10vzeroupperEv(ptr noundef nonnull align 8 dereferenceable(40) %58)
  %59 = getelementptr inbounds %class.StubCodeGenerator, ptr %25, i32 0, i32 2
  %60 = load ptr, ptr %59, align 8
  call void @_ZN14MacroAssembler5leaveEv(ptr noundef nonnull align 8 dereferenceable(40) %60)
  %61 = getelementptr inbounds %class.StubCodeGenerator, ptr %25, i32 0, i32 2
  %62 = load ptr, ptr %61, align 8
  call void @_ZN9Assembler3retEi(ptr noundef nonnull align 8 dereferenceable(40) %62, i32 noundef 0)
  %63 = load ptr, ptr %4, align 8
  call void @_ZN12StubCodeMarkD1Ev(ptr noundef nonnull align 8 dereferenceable(16) %3) #7
  ret ptr %63
}